target datalayout = "e-m:e-p270:32:32-p271:32:32-p272:64:64-i64:64-i128:128-f80:128-n8:16:32:64-S128"
target triple = "x86_64-pc-linux-gnu"

%struct.ldbState = type { ptr, i32, i32, ptr, ptr, ptr, [64 x i32], i32, i32, i32, ptr, i32, i32, ptr, i64, i32 }

@ldb = dso_local global %struct.ldbState zeroinitializer, align 8

; Function Attrs: nounwind uwtable
define dso_local i32 @luaRedisBreakpointCommand(ptr noundef %0) #0 {
  %2 = alloca ptr, align 8
  store ptr %0, ptr %2, align 8, !tbaa !24
  %3 = load i32, ptr getelementptr inbounds nuw (%struct.ldbState, ptr @ldb, i32 0, i32 1), align 8, !tbaa !26
  %4 = icmp ne i32 %3, 0
  br i1 %4, label %5, label %7

5:                                                ; preds = %1
  store i32 1, ptr getelementptr inbounds nuw (%struct.ldbState, ptr @ldb, i32 0, i32 9), align 8, !tbaa !31
  %6 = load ptr, ptr %2, align 8, !tbaa !24
  call void @lua_pushboolean(ptr noundef %6, i32 noundef 1)
  br label %9

7:                                                ; preds = %1
  %8 = load ptr, ptr %2, align 8, !tbaa !24
  call void @lua_pushboolean(ptr noundef %8, i32 noundef 0)
  br label %9

9:                                                ; preds = %7, %5
  ret i32 1
}