; Function Attrs: nounwind uwtable
define dso_local noundef i32 @luaRedisBreakpointCommand(ptr noundef %0) #0 {
  %2 = load i32, ptr getelementptr inbounds nuw (i8, ptr @ldb, i64 8), align 8, !tbaa !16
  %.not = icmp eq i32 %2, 0
  br i1 %.not, label %4, label %3

3:                                                ; preds = %1
  store i32 1, ptr getelementptr inbounds nuw (i8, ptr @ldb, i64 304), align 8, !tbaa !23
  br label %4

4:                                                ; preds = %1, %3
  %.sink = phi i32 [ 1, %3 ], [ 0, %1 ]
  tail call void @lua_pushboolean(ptr noundef %0, i32 noundef %.sink) #19
  ret i32 1
}